; Function Attrs: nounwind uwtable
define ptr @l_Lake_buildLeanSharedLib___lambda__2___boxed(ptr noundef %0, ptr noundef %1, ptr noundef %2, ptr noundef %3, ptr noundef %4, ptr noundef %5, ptr noundef %6, ptr noundef %7, ptr noundef %8, ptr noundef %9, ptr noundef %10, ptr noundef %11, ptr noundef %12, ptr noundef %13, ptr noundef %14) #0 {
  %16 = ptrtoint ptr %5 to i64
  %17 = lshr i64 %16, 1
  %18 = trunc i64 %17 to i8
  %19 = and i64 %16, 1
  %.not = icmp eq i64 %19, 0
  br i1 %.not, label %20, label %lean_dec.exit34

20:                                               ; preds = %15
  %21 = load i32, ptr %5, align 4, !tbaa !4
  %22 = icmp sgt i32 %21, 1
  br i1 %22, label %23, label %25, !prof !12

23:                                               ; preds = %20
  %24 = add nsw i32 %21, -1
  store i32 %24, ptr %5, align 4, !tbaa !4
  br label %lean_dec.exit34

25:                                               ; preds = %20
  %.not.i = icmp eq i32 %21, 0
  br i1 %.not.i, label %lean_dec.exit34, label %26

26:                                               ; preds = %25
  tail call void @lean_dec_ref_cold(ptr noundef nonnull %5) #5
  br label %lean_dec.exit34

lean_dec.exit34:                                  ; preds = %26, %25, %23, %15
  %27 = tail call ptr @l_Lake_buildLeanSharedLib___lambda__2(ptr noundef %0, ptr noundef %1, ptr noundef %2, ptr noundef %3, ptr noundef %4, i8 noundef zeroext %18, ptr noundef %6, ptr noundef %7, ptr noundef %8, ptr poison, ptr poison, ptr poison, ptr poison, ptr noundef %13, ptr noundef %14)
  %28 = ptrtoint ptr %12 to i64
  %29 = and i64 %28, 1
  %.not53 = icmp eq i64 %29, 0
  br i1 %.not53, label %30, label %lean_dec.exit33

30:                                               ; preds = %lean_dec.exit34
  %31 = load i32, ptr %12, align 4, !tbaa !4
  %32 = icmp sgt i32 %31, 1
  br i1 %32, label %33, label %35, !prof !12

33:                                               ; preds = %30
  %34 = add nsw i32 %31, -1
  store i32 %34, ptr %12, align 4, !tbaa !4
  br label %lean_dec.exit33

35:                                               ; preds = %30
  %.not.i35 = icmp eq i32 %31, 0
  br i1 %.not.i35, label %lean_dec.exit33, label %36

36:                                               ; preds = %35
  tail call void @lean_dec_ref_cold(ptr noundef nonnull %12) #5
  br label %lean_dec.exit33

lean_dec.exit33:                                  ; preds = %36, %35, %33, %lean_dec.exit34
  %37 = ptrtoint ptr %11 to i64
  %38 = and i64 %37, 1
  %.not54 = icmp eq i64 %38, 0
  br i1 %.not54, label %39, label %lean_dec.exit32

39:                                               ; preds = %lean_dec.exit33
  %40 = load i32, ptr %11, align 4, !tbaa !4
  %41 = icmp sgt i32 %40, 1
  br i1 %41, label %42, label %44, !prof !12

42:                                               ; preds = %39
  %43 = add nsw i32 %40, -1
  store i32 %43, ptr %11, align 4, !tbaa !4
  br label %lean_dec.exit32

44:                                               ; preds = %39
  %.not.i37 = icmp eq i32 %40, 0
  br i1 %.not.i37, label %lean_dec.exit32, label %45

45:                                               ; preds = %44
  tail call void @lean_dec_ref_cold(ptr noundef nonnull %11) #5
  br label %lean_dec.exit32

lean_dec.exit32:                                  ; preds = %45, %44, %42, %lean_dec.exit33
  %46 = ptrtoint ptr %10 to i64
  %47 = and i64 %46, 1
  %.not55 = icmp eq i64 %47, 0
  br i1 %.not55, label %48, label %lean_dec.exit31

48:                                               ; preds = %lean_dec.exit32
  %49 = load i32, ptr %10, align 4, !tbaa !4
  %50 = icmp sgt i32 %49, 1
  br i1 %50, label %51, label %53, !prof !12

51:                                               ; preds = %48
  %52 = add nsw i32 %49, -1
  store i32 %52, ptr %10, align 4, !tbaa !4
  br label %lean_dec.exit31

53:                                               ; preds = %48
  %.not.i39 = icmp eq i32 %49, 0
  br i1 %.not.i39, label %lean_dec.exit31, label %54

54:                                               ; preds = %53
  tail call void @lean_dec_ref_cold(ptr noundef nonnull %10) #5
  br label %lean_dec.exit31

lean_dec.exit31:                                  ; preds = %54, %53, %51, %lean_dec.exit32
  %55 = ptrtoint ptr %9 to i64
  %56 = and i64 %55, 1
  %.not56 = icmp eq i64 %56, 0
  br i1 %.not56, label %57, label %lean_dec.exit30

57:                                               ; preds = %lean_dec.exit31
  %58 = load i32, ptr %9, align 4, !tbaa !4
  %59 = icmp sgt i32 %58, 1
  br i1 %59, label %60, label %62, !prof !12

60:                                               ; preds = %57
  %61 = add nsw i32 %58, -1
  store i32 %61, ptr %9, align 4, !tbaa !4
  br label %lean_dec.exit30

62:                                               ; preds = %57
  %.not.i41 = icmp eq i32 %58, 0
  br i1 %.not.i41, label %lean_dec.exit30, label %63

63:                                               ; preds = %62
  tail call void @lean_dec_ref_cold(ptr noundef nonnull %9) #5
  br label %lean_dec.exit30

lean_dec.exit30:                                  ; preds = %63, %62, %60, %lean_dec.exit31
  %64 = ptrtoint ptr %7 to i64
  %65 = and i64 %64, 1
  %.not57 = icmp eq i64 %65, 0
  br i1 %.not57, label %66, label %lean_dec.exit29

66:                                               ; preds = %lean_dec.exit30
  %67 = load i32, ptr %7, align 4, !tbaa !4
  %68 = icmp sgt i32 %67, 1
  br i1 %68, label %69, label %71, !prof !12

69:                                               ; preds = %66
  %70 = add nsw i32 %67, -1
  store i32 %70, ptr %7, align 4, !tbaa !4
  br label %lean_dec.exit29

71:                                               ; preds = %66
  %.not.i43 = icmp eq i32 %67, 0
  br i1 %.not.i43, label %lean_dec.exit29, label %72

72:                                               ; preds = %71
  tail call void @lean_dec_ref_cold(ptr noundef nonnull %7) #5
  br label %lean_dec.exit29

lean_dec.exit29:                                  ; preds = %72, %71, %69, %lean_dec.exit30
  %73 = ptrtoint ptr %6 to i64
  %74 = and i64 %73, 1
  %.not58 = icmp eq i64 %74, 0
  br i1 %.not58, label %75, label %lean_dec.exit28

75:                                               ; preds = %lean_dec.exit29
  %76 = load i32, ptr %6, align 4, !tbaa !4
  %77 = icmp sgt i32 %76, 1
  br i1 %77, label %78, label %80, !prof !12

78:                                               ; preds = %75
  %79 = add nsw i32 %76, -1
  store i32 %79, ptr %6, align 4, !tbaa !4
  br label %lean_dec.exit28

80:                                               ; preds = %75
  %.not.i45 = icmp eq i32 %76, 0
  br i1 %.not.i45, label %lean_dec.exit28, label %81

81:                                               ; preds = %80
  tail call void @lean_dec_ref_cold(ptr noundef nonnull %6) #5
  br label %lean_dec.exit28

lean_dec.exit28:                                  ; preds = %81, %80, %78, %lean_dec.exit29
  %82 = ptrtoint ptr %2 to i64
  %83 = and i64 %82, 1
  %.not59 = icmp eq i64 %83, 0
  br i1 %.not59, label %84, label %lean_dec.exit27

84:                                               ; preds = %lean_dec.exit28
  %85 = load i32, ptr %2, align 4, !tbaa !4
  %86 = icmp sgt i32 %85, 1
  br i1 %86, label %87, label %89, !prof !12

87:                                               ; preds = %84
  %88 = add nsw i32 %85, -1
  store i32 %88, ptr %2, align 4, !tbaa !4
  br label %lean_dec.exit27

89:                                               ; preds = %84
  %.not.i47 = icmp eq i32 %85, 0
  br i1 %.not.i47, label %lean_dec.exit27, label %90

90:                                               ; preds = %89
  tail call void @lean_dec_ref_cold(ptr noundef nonnull %2) #5
  br label %lean_dec.exit27

lean_dec.exit27:                                  ; preds = %90, %89, %87, %lean_dec.exit28
  %91 = ptrtoint ptr %1 to i64
  %92 = and i64 %91, 1
  %.not60 = icmp eq i64 %92, 0
  br i1 %.not60, label %93, label %lean_dec.exit26

93:                                               ; preds = %lean_dec.exit27
  %94 = load i32, ptr %1, align 4, !tbaa !4
  %95 = icmp sgt i32 %94, 1
  br i1 %95, label %96, label %98, !prof !12

96:                                               ; preds = %93
  %97 = add nsw i32 %94, -1
  store i32 %97, ptr %1, align 4, !tbaa !4
  br label %lean_dec.exit26

98:                                               ; preds = %93
  %.not.i49 = icmp eq i32 %94, 0
  br i1 %.not.i49, label %lean_dec.exit26, label %99

99:                                               ; preds = %98
  tail call void @lean_dec_ref_cold(ptr noundef nonnull %1) #5
  br label %lean_dec.exit26

lean_dec.exit26:                                  ; preds = %99, %98, %96, %lean_dec.exit27
  %100 = ptrtoint ptr %0 to i64
  %101 = and i64 %100, 1
  %.not61 = icmp eq i64 %101, 0
  br i1 %.not61, label %102, label %lean_dec.exit

102:                                              ; preds = %lean_dec.exit26
  %103 = load i32, ptr %0, align 4, !tbaa !4
  %104 = icmp sgt i32 %103, 1
  br i1 %104, label %105, label %107, !prof !12

105:                                              ; preds = %102
  %106 = add nsw i32 %103, -1
  store i32 %106, ptr %0, align 4, !tbaa !4
  br label %lean_dec.exit

107:                                              ; preds = %102
  %.not.i51 = icmp eq i32 %103, 0
  br i1 %.not.i51, label %lean_dec.exit, label %108

108:                                              ; preds = %107
  tail call void @lean_dec_ref_cold(ptr noundef nonnull %0) #5
  br label %lean_dec.exit

lean_dec.exit:                                    ; preds = %108, %107, %105, %lean_dec.exit26
  ret ptr %27
}